; ModuleID = '55/494.c'
source_filename = "55/494.c"
target datalayout = "e-m:e-p270:32:32-p271:32:32-p272:64:64-i64:64-f80:128-n8:16:32:64-S128"
target triple = "x86_64-pc-linux-gnu"

@.str = private unnamed_addr constant [4 x i8] c"%ld\00", align 1
@.str.1 = private unnamed_addr constant [3 x i8] c"%s\00", align 1
@.str.2 = private unnamed_addr constant [3 x i8] c"%d\00", align 1
@.str.3 = private unnamed_addr constant [3 x i8] c"%c\00", align 1

; Function Attrs: noinline nounwind uwtable
define dso_local i64 @cifang(i32 %0, i32 %1) #0 {
  %3 = alloca i32, align 4
  %4 = alloca i32, align 4
  %5 = alloca i64, align 8
  %6 = alloca i32, align 4
  store i32 %0, i32* %3, align 4
  store i32 %1, i32* %4, align 4
  store i64 1, i64* %5, align 8
  store i32 0, i32* %6, align 4
  br label %7

7:                                                ; preds = %16, %2
  %8 = load i32, i32* %6, align 4
  %9 = load i32, i32* %4, align 4
  %10 = icmp slt i32 %8, %9
  br i1 %10, label %11, label %19

11:                                               ; preds = %7
  %12 = load i64, i64* %5, align 8
  %13 = load i32, i32* %3, align 4
  %14 = sext i32 %13 to i64
  %15 = mul nsw i64 %12, %14
  store i64 %15, i64* %5, align 8
  br label %16

16:                                               ; preds = %11
  %17 = load i32, i32* %6, align 4
  %18 = add nsw i32 %17, 1
  store i32 %18, i32* %6, align 4
  br label %7

19:                                               ; preds = %7
  %20 = load i64, i64* %5, align 8
  ret i64 %20
}

; Function Attrs: noinline nounwind uwtable
define dso_local void @main() #0 {
  %1 = alloca i32, align 4
  %2 = alloca i32, align 4
  %3 = alloca i32, align 4
  %4 = alloca i32, align 4
  %5 = alloca [50 x i32], align 16
  %6 = alloca [10 x i8], align 1
  %7 = alloca i64, align 8
  %8 = bitcast [50 x i32]* %5 to i8*
  call void @llvm.memset.p0i8.i64(i8* align 16 %8, i8 0, i64 200, i1 false)
  %9 = call i32 (i8*, ...) @__isoc99_scanf(i8* getelementptr inbounds ([4 x i8], [4 x i8]* @.str, i64 0, i64 0), i32* %1)
  %10 = getelementptr inbounds [10 x i8], [10 x i8]* %6, i64 0, i64 0
  %11 = call i32 (i8*, ...) @__isoc99_scanf(i8* getelementptr inbounds ([3 x i8], [3 x i8]* @.str.1, i64 0, i64 0), i8* %10)
  %12 = call i32 (i8*, ...) @__isoc99_scanf(i8* getelementptr inbounds ([4 x i8], [4 x i8]* @.str, i64 0, i64 0), i32* %2)
  store i32 0, i32* %3, align 4
  store i64 0, i64* %7, align 8
  store i32 0, i32* %4, align 4
  br label %13

13:                                               ; preds = %23, %0
  %14 = load i32, i32* %4, align 4
  %15 = sext i32 %14 to i64
  %16 = getelementptr inbounds [10 x i8], [10 x i8]* %6, i64 0, i64 %15
  %17 = load i8, i8* %16, align 1
  %18 = sext i8 %17 to i32
  %19 = icmp ne i32 %18, 0
  br i1 %19, label %20, label %26

20:                                               ; preds = %13
  %21 = load i32, i32* %3, align 4
  %22 = add nsw i32 %21, 1
  store i32 %22, i32* %3, align 4
  br label %23

23:                                               ; preds = %20
  %24 = load i32, i32* %4, align 4
  %25 = add nsw i32 %24, 1
  store i32 %25, i32* %4, align 4
  br label %13

26:                                               ; preds = %13
  store i32 0, i32* %4, align 4
  br label %27

27:                                               ; preds = %127, %26
  %28 = load i32, i32* %4, align 4
  %29 = load i32, i32* %3, align 4
  %30 = icmp slt i32 %28, %29
  br i1 %30, label %31, label %130

31:                                               ; preds = %27
  %32 = load i32, i32* %4, align 4
  %33 = sext i32 %32 to i64
  %34 = getelementptr inbounds [10 x i8], [10 x i8]* %6, i64 0, i64 %33
  %35 = load i8, i8* %34, align 1
  %36 = sext i8 %35 to i32
  %37 = icmp sge i32 %36, 48
  br i1 %37, label %38, label %62

38:                                               ; preds = %31
  %39 = load i32, i32* %4, align 4
  %40 = sext i32 %39 to i64
  %41 = getelementptr inbounds [10 x i8], [10 x i8]* %6, i64 0, i64 %40
  %42 = load i8, i8* %41, align 1
  %43 = sext i8 %42 to i32
  %44 = icmp sle i32 %43, 57
  br i1 %44, label %45, label %62

45:                                               ; preds = %38
  %46 = load i64, i64* %7, align 8
  %47 = load i32, i32* %4, align 4
  %48 = sext i32 %47 to i64
  %49 = getelementptr inbounds [10 x i8], [10 x i8]* %6, i64 0, i64 %48
  %50 = load i8, i8* %49, align 1
  %51 = sext i8 %50 to i32
  %52 = sub nsw i32 %51, 48
  %53 = sext i32 %52 to i64
  %54 = load i32, i32* %1, align 4
  %55 = load i32, i32* %3, align 4
  %56 = load i32, i32* %4, align 4
  %57 = sub nsw i32 %55, %56
  %58 = sub nsw i32 %57, 1
  %59 = call i64 @cifang(i32 %54, i32 %58)
  %60 = mul nsw i64 %53, %59
  %61 = add nsw i64 %46, %60
  store i64 %61, i64* %7, align 8
  br label %126

62:                                               ; preds = %38, %31
  %63 = load i32, i32* %4, align 4
  %64 = sext i32 %63 to i64
  %65 = getelementptr inbounds [10 x i8], [10 x i8]* %6, i64 0, i64 %64
  %66 = load i8, i8* %65, align 1
  %67 = sext i8 %66 to i32
  %68 = icmp sge i32 %67, 65
  br i1 %68, label %69, label %93

69:                                               ; preds = %62
  %70 = load i32, i32* %4, align 4
  %71 = sext i32 %70 to i64
  %72 = getelementptr inbounds [10 x i8], [10 x i8]* %6, i64 0, i64 %71
  %73 = load i8, i8* %72, align 1
  %74 = sext i8 %73 to i32
  %75 = icmp sle i32 %74, 90
  br i1 %75, label %76, label %93

76:                                               ; preds = %69
  %77 = load i64, i64* %7, align 8
  %78 = load i32, i32* %4, align 4
  %79 = sext i32 %78 to i64
  %80 = getelementptr inbounds [10 x i8], [10 x i8]* %6, i64 0, i64 %79
  %81 = load i8, i8* %80, align 1
  %82 = sext i8 %81 to i32
  %83 = sub nsw i32 %82, 55
  %84 = sext i32 %83 to i64
  %85 = load i32, i32* %1, align 4
  %86 = load i32, i32* %3, align 4
  %87 = load i32, i32* %4, align 4
  %88 = sub nsw i32 %86, %87
  %89 = sub nsw i32 %88, 1
  %90 = call i64 @cifang(i32 %85, i32 %89)
  %91 = mul nsw i64 %84, %90
  %92 = add nsw i64 %77, %91
  store i64 %92, i64* %7, align 8
  br label %125

93:                                               ; preds = %69, %62
  %94 = load i32, i32* %4, align 4
  %95 = sext i32 %94 to i64
  %96 = getelementptr inbounds [10 x i8], [10 x i8]* %6, i64 0, i64 %95
  %97 = load i8, i8* %96, align 1
  %98 = sext i8 %97 to i32
  %99 = icmp sge i32 %98, 97
  br i1 %99, label %100, label %124

100:                                              ; preds = %93
  %101 = load i32, i32* %4, align 4
  %102 = sext i32 %101 to i64
  %103 = getelementptr inbounds [10 x i8], [10 x i8]* %6, i64 0, i64 %102
  %104 = load i8, i8* %103, align 1
  %105 = sext i8 %104 to i32
  %106 = icmp sle i32 %105, 122
  br i1 %106, label %107, label %124

107:                                              ; preds = %100
  %108 = load i64, i64* %7, align 8
  %109 = load i32, i32* %4, align 4
  %110 = sext i32 %109 to i64
  %111 = getelementptr inbounds [10 x i8], [10 x i8]* %6, i64 0, i64 %110
  %112 = load i8, i8* %111, align 1
  %113 = sext i8 %112 to i32
  %114 = sub nsw i32 %113, 87
  %115 = sext i32 %114 to i64
  %116 = load i32, i32* %1, align 4
  %117 = load i32, i32* %3, align 4
  %118 = load i32, i32* %4, align 4
  %119 = sub nsw i32 %117, %118
  %120 = sub nsw i32 %119, 1
  %121 = call i64 @cifang(i32 %116, i32 %120)
  %122 = mul nsw i64 %115, %121
  %123 = add nsw i64 %108, %122
  store i64 %123, i64* %7, align 8
  br label %124

124:                                              ; preds = %107, %100, %93
  br label %125

125:                                              ; preds = %124, %76
  br label %126

126:                                              ; preds = %125, %45
  br label %127

127:                                              ; preds = %126
  %128 = load i32, i32* %4, align 4
  %129 = add nsw i32 %128, 1
  store i32 %129, i32* %4, align 4
  br label %27

130:                                              ; preds = %27
  store i32 0, i32* %3, align 4
  store i32 0, i32* %4, align 4
  br label %131

131:                                              ; preds = %156, %130
  %132 = load i32, i32* %3, align 4
  %133 = add nsw i32 %132, 1
  store i32 %133, i32* %3, align 4
  %134 = load i64, i64* %7, align 8
  %135 = load i32, i32* %2, align 4
  %136 = sext i32 %135 to i64
  %137 = srem i64 %134, %136
  %138 = trunc i64 %137 to i32
  %139 = load i32, i32* %4, align 4
  %140 = sext i32 %139 to i64
  %141 = getelementptr inbounds [50 x i32], [50 x i32]* %5, i64 0, i64 %140
  store i32 %138, i32* %141, align 4
  %142 = load i64, i64* %7, align 8
  %143 = load i32, i32* %4, align 4
  %144 = sext i32 %143 to i64
  %145 = getelementptr inbounds [50 x i32], [50 x i32]* %5, i64 0, i64 %144
  %146 = load i32, i32* %145, align 4
  %147 = sext i32 %146 to i64
  %148 = sub nsw i64 %142, %147
  %149 = load i32, i32* %2, align 4
  %150 = sext i32 %149 to i64
  %151 = sdiv i64 %148, %150
  store i64 %151, i64* %7, align 8
  %152 = load i64, i64* %7, align 8
  %153 = icmp eq i64 %152, 0
  br i1 %153, label %154, label %155

154:                                              ; preds = %131
  br label %159

155:                                              ; preds = %131
  br label %156

156:                                              ; preds = %155
  %157 = load i32, i32* %4, align 4
  %158 = add nsw i32 %157, 1
  store i32 %158, i32* %4, align 4
  br label %131

159:                                              ; preds = %154
  %160 = load i32, i32* %3, align 4
  %161 = sub nsw i32 %160, 1
  store i32 %161, i32* %4, align 4
  br label %162

162:                                              ; preds = %192, %159
  %163 = load i32, i32* %4, align 4
  %164 = icmp sge i32 %163, 0
  br i1 %164, label %165, label %195

165:                                              ; preds = %162
  %166 = load i32, i32* %4, align 4
  %167 = sext i32 %166 to i64
  %168 = getelementptr inbounds [50 x i32], [50 x i32]* %5, i64 0, i64 %167
  %169 = load i32, i32* %168, align 4
  %170 = icmp sle i32 %169, 9
  br i1 %170, label %171, label %177

171:                                              ; preds = %165
  %172 = load i32, i32* %4, align 4
  %173 = sext i32 %172 to i64
  %174 = getelementptr inbounds [50 x i32], [50 x i32]* %5, i64 0, i64 %173
  %175 = load i32, i32* %174, align 4
  %176 = call i32 (i8*, ...) @printf(i8* getelementptr inbounds ([3 x i8], [3 x i8]* @.str.2, i64 0, i64 0), i32 %175)
  br label %191

177:                                              ; preds = %165
  %178 = load i32, i32* %4, align 4
  %179 = sext i32 %178 to i64
  %180 = getelementptr inbounds [50 x i32], [50 x i32]* %5, i64 0, i64 %179
  %181 = load i32, i32* %180, align 4
  %182 = icmp sgt i32 %181, 9
  br i1 %182, label %183, label %190

183:                                              ; preds = %177
  %184 = load i32, i32* %4, align 4
  %185 = sext i32 %184 to i64
  %186 = getelementptr inbounds [50 x i32], [50 x i32]* %5, i64 0, i64 %185
  %187 = load i32, i32* %186, align 4
  %188 = add nsw i32 %187, 55
  %189 = call i32 (i8*, ...) @printf(i8* getelementptr inbounds ([3 x i8], [3 x i8]* @.str.3, i64 0, i64 0), i32 %188)
  br label %190

190:                                              ; preds = %183, %177
  br label %191

191:                                              ; preds = %190, %171
  br label %192

192:                                              ; preds = %191
  %193 = load i32, i32* %4, align 4
  %194 = add nsw i32 %193, -1
  store i32 %194, i32* %4, align 4
  br label %162

195:                                              ; preds = %162
  ret void
}

; Function Attrs: argmemonly nounwind willreturn
declare void @llvm.memset.p0i8.i64(i8* nocapture writeonly, i8, i64, i1 immarg) #1

declare dso_local i32 @__isoc99_scanf(i8*, ...) #2

declare dso_local i32 @printf(i8*, ...) #2


!llvm.module.flags = !{!0}
!llvm.ident = !{!1}

!0 = !{i32 1, !"wchar_size", i32 4}
!1 = !{!"clang version 10.0.0-4ubuntu1 "}
